target datalayout = "e-m:e-p270:32:32-p271:32:32-p272:64:64-i64:64-i128:128-f80:128-n8:16:32:64-S128"
target triple = "x86_64-pc-linux-gnu"

@.str = private unnamed_addr constant [19 x i8] c"Build version: %s\0A\00", align 1
@.str.1 = private unnamed_addr constant [10 x i8] c"3.5.0-dev\00", align 1
@.str.2 = private unnamed_addr constant [21 x i8] c"Library version: %s\0A\00", align 1

; Function Attrs: nounwind uwtable
define dso_local i32 @main() #0 {
  %1 = alloca i32, align 4
  store i32 0, ptr %1, align 4
  %2 = call i32 (ptr, ...) @printf(ptr noundef @.str, ptr noundef @.str.1)
  %3 = call ptr @OpenSSL_version(i32 noundef 7)
  %4 = call i32 (ptr, ...) @printf(ptr noundef @.str.2, ptr noundef %3)
  ret i32 0
}

declare i32 @printf(ptr noundef, ...) #1

declare ptr @OpenSSL_version(i32 noundef) #1


!llvm.module.flags = !{!0, !1, !2, !3}

!0 = !{i32 1, !"wchar_size", i32 4}
!1 = !{i32 8, !"PIC Level", i32 2}
!2 = !{i32 7, !"PIE Level", i32 2}
!3 = !{i32 7, !"uwtable", i32 2}
